; Function Attrs: nounwind uwtable
define internal i32 @eventlog_dissect_GetLogIntormation_response(ptr noundef %0, i32 noundef %1, ptr noundef %2, ptr noundef %3, ptr noundef initializes((80, 88)) %4, ptr noundef %5) #0 {
  %7 = alloca i32, align 4
  %8 = getelementptr inbounds nuw i8, ptr %4, i64 80
  store ptr @.str.197, ptr %8, align 8
  %9 = tail call i32 @dissect_ndr_ucarray(ptr noundef %0, i32 noundef %1, ptr noundef %2, ptr noundef %3, ptr noundef %4, ptr noundef %5, ptr noundef nonnull @eventlog_dissect_element_GetLogIntormation_lpBuffer_) #4
  %10 = tail call i32 @dissect_deferred_pointers(ptr noundef %2, ptr noundef %0, i32 noundef %9, ptr noundef %4, ptr noundef %5) #4
  %11 = load i32, ptr @hf_eventlog_eventlog_GetLogIntormation_cbBytesNeeded, align 4
  %12 = tail call i32 @dissect_ndr_toplevel_pointer(ptr noundef %0, i32 noundef %10, ptr noundef %2, ptr noundef %3, ptr noundef %4, ptr noundef %5, ptr noundef nonnull @eventlog_dissect_element_GetLogIntormation_cbBytesNeeded_, i32 noundef 1, ptr noundef nonnull @.str.210, i32 noundef %11) #4
  %13 = tail call i32 @dissect_deferred_pointers(ptr noundef %2, ptr noundef %0, i32 noundef %12, ptr noundef %4, ptr noundef %5) #4
  %14 = load i32, ptr @hf_eventlog_status, align 4
  %15 = call i32 @dissect_ntstatus(ptr noundef %0, i32 noundef %13, ptr noundef %2, ptr noundef %3, ptr noundef %4, ptr noundef %5, i32 noundef %14, ptr noundef nonnull %7) #4
  %16 = load i32, ptr %7, align 4
  %.not = icmp eq i32 %16, 0
  br i1 %.not, label %21, label %17

17:                                               ; preds = %6
  %18 = getelementptr inbounds nuw i8, ptr %2, i64 8
  %19 = load ptr, ptr %18, align 8
  %20 = call ptr @val_to_str(i32 noundef %16, ptr noundef nonnull @NT_errors, ptr noundef nonnull @.str.202) #4
  call void (ptr, i32, ptr, ...) @col_append_fstr(ptr noundef %19, i32 noundef 25, ptr noundef nonnull @.str.201, ptr noundef %20) #4
  br label %21

21:                                               ; preds = %17, %6
  ret i32 %15
}